; ModuleID = '20/465.c'
source_filename = "20/465.c"
target datalayout = "e-m:e-p270:32:32-p271:32:32-p272:64:64-i64:64-f80:128-n8:16:32:64-S128"
target triple = "x86_64-pc-linux-gnu"

@.str = private unnamed_addr constant [5 x i8] c"%s%s\00", align 1
@.str.1 = private unnamed_addr constant [4 x i8] c"%s\0A\00", align 1

; Function Attrs: noinline nounwind uwtable
define dso_local i32 @f(i8* %0) #0 {
  %2 = alloca i8*, align 8
  %3 = alloca i32, align 4
  %4 = alloca i32, align 4
  %5 = alloca i32, align 4
  %6 = alloca i32, align 4
  store i8* %0, i8** %2, align 8
  store i32 0, i32* %6, align 4
  %7 = load i8*, i8** %2, align 8
  %8 = call i64 @strlen(i8* %7) #3
  %9 = trunc i64 %8 to i32
  store i32 %9, i32* %4, align 4
  store i32 0, i32* %3, align 4
  br label %10

10:                                               ; preds = %32, %1
  %11 = load i32, i32* %3, align 4
  %12 = load i32, i32* %4, align 4
  %13 = icmp slt i32 %11, %12
  br i1 %13, label %14, label %35

14:                                               ; preds = %10
  %15 = load i32, i32* %6, align 4
  %16 = load i8*, i8** %2, align 8
  %17 = load i32, i32* %3, align 4
  %18 = sext i32 %17 to i64
  %19 = getelementptr inbounds i8, i8* %16, i64 %18
  %20 = load i8, i8* %19, align 1
  %21 = sext i8 %20 to i32
  %22 = icmp slt i32 %15, %21
  br i1 %22, label %23, label %31

23:                                               ; preds = %14
  %24 = load i8*, i8** %2, align 8
  %25 = load i32, i32* %3, align 4
  %26 = sext i32 %25 to i64
  %27 = getelementptr inbounds i8, i8* %24, i64 %26
  %28 = load i8, i8* %27, align 1
  %29 = sext i8 %28 to i32
  store i32 %29, i32* %6, align 4
  %30 = load i32, i32* %3, align 4
  store i32 %30, i32* %5, align 4
  br label %31

31:                                               ; preds = %23, %14
  br label %32

32:                                               ; preds = %31
  %33 = load i32, i32* %3, align 4
  %34 = add nsw i32 %33, 1
  store i32 %34, i32* %3, align 4
  br label %10

35:                                               ; preds = %10
  %36 = load i32, i32* %5, align 4
  ret i32 %36
}

; Function Attrs: nounwind readonly
declare dso_local i64 @strlen(i8*) #1

; Function Attrs: noinline nounwind uwtable
define dso_local void @main() #0 {
  %1 = alloca [11 x i8], align 1
  %2 = alloca [4 x i8], align 1
  %3 = alloca [14 x i8], align 1
  %4 = alloca i32, align 4
  %5 = alloca i32, align 4
  %6 = alloca i32, align 4
  %7 = alloca i32, align 4
  br label %8

8:                                                ; preds = %75, %0
  %9 = getelementptr inbounds [11 x i8], [11 x i8]* %1, i64 0, i64 0
  %10 = getelementptr inbounds [4 x i8], [4 x i8]* %2, i64 0, i64 0
  %11 = call i32 (i8*, ...) @__isoc99_scanf(i8* getelementptr inbounds ([5 x i8], [5 x i8]* @.str, i64 0, i64 0), i8* %9, i8* %10)
  %12 = icmp ne i32 %11, -1
  br i1 %12, label %13, label %78

13:                                               ; preds = %8
  %14 = getelementptr inbounds [11 x i8], [11 x i8]* %1, i64 0, i64 0
  %15 = call i64 @strlen(i8* %14) #3
  %16 = trunc i64 %15 to i32
  store i32 %16, i32* %6, align 4
  %17 = getelementptr inbounds [11 x i8], [11 x i8]* %1, i64 0, i64 0
  %18 = call i32 @f(i8* %17)
  store i32 %18, i32* %7, align 4
  store i32 0, i32* %5, align 4
  br label %19

19:                                               ; preds = %31, %13
  %20 = load i32, i32* %5, align 4
  %21 = load i32, i32* %7, align 4
  %22 = icmp sle i32 %20, %21
  br i1 %22, label %23, label %34

23:                                               ; preds = %19
  %24 = load i32, i32* %5, align 4
  %25 = sext i32 %24 to i64
  %26 = getelementptr inbounds [11 x i8], [11 x i8]* %1, i64 0, i64 %25
  %27 = load i8, i8* %26, align 1
  %28 = load i32, i32* %5, align 4
  %29 = sext i32 %28 to i64
  %30 = getelementptr inbounds [14 x i8], [14 x i8]* %3, i64 0, i64 %29
  store i8 %27, i8* %30, align 1
  br label %31

31:                                               ; preds = %23
  %32 = load i32, i32* %5, align 4
  %33 = add nsw i32 %32, 1
  store i32 %33, i32* %5, align 4
  br label %19

34:                                               ; preds = %19
  store i32 0, i32* %4, align 4
  %35 = load i32, i32* %7, align 4
  %36 = add nsw i32 %35, 1
  store i32 %36, i32* %5, align 4
  br label %37

37:                                               ; preds = %48, %34
  %38 = load i32, i32* %4, align 4
  %39 = icmp slt i32 %38, 3
  br i1 %39, label %40, label %53

40:                                               ; preds = %37
  %41 = load i32, i32* %4, align 4
  %42 = sext i32 %41 to i64
  %43 = getelementptr inbounds [4 x i8], [4 x i8]* %2, i64 0, i64 %42
  %44 = load i8, i8* %43, align 1
  %45 = load i32, i32* %5, align 4
  %46 = sext i32 %45 to i64
  %47 = getelementptr inbounds [14 x i8], [14 x i8]* %3, i64 0, i64 %46
  store i8 %44, i8* %47, align 1
  br label %48

48:                                               ; preds = %40
  %49 = load i32, i32* %4, align 4
  %50 = add nsw i32 %49, 1
  store i32 %50, i32* %4, align 4
  %51 = load i32, i32* %5, align 4
  %52 = add nsw i32 %51, 1
  store i32 %52, i32* %5, align 4
  br label %37

53:                                               ; preds = %37
  %54 = load i32, i32* %7, align 4
  %55 = add nsw i32 %54, 1
  store i32 %55, i32* %4, align 4
  %56 = load i32, i32* %7, align 4
  %57 = add nsw i32 %56, 4
  store i32 %57, i32* %5, align 4
  br label %58

58:                                               ; preds = %70, %53
  %59 = load i32, i32* %4, align 4
  %60 = load i32, i32* %6, align 4
  %61 = icmp sle i32 %59, %60
  br i1 %61, label %62, label %75

62:                                               ; preds = %58
  %63 = load i32, i32* %4, align 4
  %64 = sext i32 %63 to i64
  %65 = getelementptr inbounds [11 x i8], [11 x i8]* %1, i64 0, i64 %64
  %66 = load i8, i8* %65, align 1
  %67 = load i32, i32* %5, align 4
  %68 = sext i32 %67 to i64
  %69 = getelementptr inbounds [14 x i8], [14 x i8]* %3, i64 0, i64 %68
  store i8 %66, i8* %69, align 1
  br label %70

70:                                               ; preds = %62
  %71 = load i32, i32* %4, align 4
  %72 = add nsw i32 %71, 1
  store i32 %72, i32* %4, align 4
  %73 = load i32, i32* %5, align 4
  %74 = add nsw i32 %73, 1
  store i32 %74, i32* %5, align 4
  br label %58

75:                                               ; preds = %58
  %76 = getelementptr inbounds [14 x i8], [14 x i8]* %3, i64 0, i64 0
  %77 = call i32 (i8*, ...) @printf(i8* getelementptr inbounds ([4 x i8], [4 x i8]* @.str.1, i64 0, i64 0), i8* %76)
  br label %8

78:                                               ; preds = %8
  ret void
}

declare dso_local i32 @__isoc99_scanf(i8*, ...) #2

declare dso_local i32 @printf(i8*, ...) #2


!llvm.module.flags = !{!0}
!llvm.ident = !{!1}

!0 = !{i32 1, !"wchar_size", i32 4}
!1 = !{!"clang version 10.0.0-4ubuntu1 "}
